CCS PCM C Compiler, Version 5.115, 43599               19-Mar-25 09:18

               Filename:   D:\Embedded\Projects\PIC16F877A\Read LM35 and show 3 7-seq\main.lst

               ROM used:   676 words (8%)
                           Largest free fragment is 2048
               RAM used:   11 (3%) at main() level
                           25 (7%) worst case
               Stack used: 1 locations
               Stack size: 8

*
0000:  MOVLW  02
0001:  MOVWF  0A
0002:  GOTO   22B
0003:  NOP
.................... #include <main.h>
.................... #include <16F877A.h>
.................... //////////// Standard Header file for the PIC16F877A device ////////////////
.................... ///////////////////////////////////////////////////////////////////////////
.................... ////        (C) Copyright 1996, 2020 Custom Computer Services          ////
.................... //// This source code may only be used by licensed users of the CCS C  ////
.................... //// compiler.  This source code may only be distributed to other      ////
.................... //// licensed users of the CCS C compiler.  No other use, reproduction ////
.................... //// or distribution is permitted without written permission.          ////
.................... //// Derivative programs created using this software in object code    ////
.................... //// form are not restricted in any way.                               ////
.................... ///////////////////////////////////////////////////////////////////////////
.................... #device PIC16F877A
0004:  BCF    0A.0
0005:  BCF    0A.1
0006:  BCF    0A.2
0007:  ADDWF  02,F
0008:  RETLW  3F
0009:  RETLW  06
000A:  RETLW  5B
000B:  RETLW  4F
000C:  RETLW  66
000D:  RETLW  6D
000E:  RETLW  7D
000F:  RETLW  07
0010:  RETLW  7F
0011:  RETLW  6F
0012:  CLRF   78
0013:  CLRF   79
0014:  CLRF   77
0015:  CLRF   7A
0016:  MOVF   29,W
0017:  BTFSS  03.2
0018:  GOTO   01C
0019:  MOVF   28,W
001A:  BTFSC  03.2
001B:  GOTO   036
001C:  MOVLW  10
001D:  MOVWF  2A
001E:  BCF    03.0
001F:  RLF    26,F
0020:  RLF    27,F
0021:  RLF    77,F
0022:  RLF    7A,F
0023:  MOVF   29,W
0024:  SUBWF  7A,W
0025:  BTFSS  03.2
0026:  GOTO   029
0027:  MOVF   28,W
0028:  SUBWF  77,W
0029:  BTFSS  03.0
002A:  GOTO   032
002B:  MOVF   28,W
002C:  SUBWF  77,F
002D:  BTFSS  03.0
002E:  DECF   7A,F
002F:  MOVF   29,W
0030:  SUBWF  7A,F
0031:  BSF    03.0
0032:  RLF    78,F
0033:  RLF    79,F
0034:  DECFSZ 2A,F
0035:  GOTO   01E
0036:  BCF    0A.3
0037:  BCF    0A.4
0038:  GOTO   275 (RETURN)
0039:  MOVLW  8E
003A:  MOVWF  77
003B:  MOVF   27,W
003C:  MOVWF  78
003D:  MOVF   26,W
003E:  MOVWF  79
003F:  CLRF   7A
0040:  MOVF   78,F
0041:  BTFSS  03.2
0042:  GOTO   04D
0043:  MOVF   79,W
0044:  MOVWF  78
0045:  CLRF   79
0046:  MOVLW  08
0047:  SUBWF  77,F
0048:  MOVF   78,F
0049:  BTFSS  03.2
004A:  GOTO   04D
004B:  CLRF   77
004C:  GOTO   055
004D:  BCF    03.0
004E:  BTFSC  78.7
004F:  GOTO   054
0050:  RLF    79,F
0051:  RLF    78,F
0052:  DECF   77,F
0053:  GOTO   04D
0054:  BCF    78.7
0055:  BCF    0A.3
0056:  BCF    0A.4
0057:  GOTO   27E (RETURN)
0058:  MOVF   26,W
0059:  BTFSC  03.2
005A:  GOTO   11D
005B:  MOVWF  32
005C:  MOVF   2A,W
005D:  BTFSC  03.2
005E:  GOTO   11D
005F:  SUBWF  32,F
0060:  BTFSS  03.0
0061:  GOTO   067
0062:  MOVLW  7F
0063:  ADDWF  32,F
0064:  BTFSC  03.0
0065:  GOTO   11D
0066:  GOTO   06D
0067:  MOVLW  81
0068:  SUBWF  32,F
0069:  BTFSS  03.0
006A:  GOTO   11D
006B:  BTFSC  03.2
006C:  GOTO   11D
006D:  MOVF   32,W
006E:  MOVWF  77
006F:  CLRF   78
0070:  CLRF   79
0071:  CLRF   7A
0072:  CLRF   31
0073:  MOVF   27,W
0074:  MOVWF  30
0075:  BSF    30.7
0076:  MOVF   28,W
0077:  MOVWF  2F
0078:  MOVF   29,W
0079:  MOVWF  2E
007A:  MOVLW  19
007B:  MOVWF  32
007C:  MOVF   2D,W
007D:  SUBWF  2E,F
007E:  BTFSC  03.0
007F:  GOTO   090
0080:  MOVLW  01
0081:  SUBWF  2F,F
0082:  BTFSC  03.0
0083:  GOTO   090
0084:  SUBWF  30,F
0085:  BTFSC  03.0
0086:  GOTO   090
0087:  SUBWF  31,F
0088:  BTFSC  03.0
0089:  GOTO   090
008A:  INCF   31,F
008B:  INCF   30,F
008C:  INCF   2F,F
008D:  MOVF   2D,W
008E:  ADDWF  2E,F
008F:  GOTO   0C2
0090:  MOVF   2C,W
0091:  SUBWF  2F,F
0092:  BTFSC  03.0
0093:  GOTO   0AB
0094:  MOVLW  01
0095:  SUBWF  30,F
0096:  BTFSC  03.0
0097:  GOTO   0AB
0098:  SUBWF  31,F
0099:  BTFSC  03.0
009A:  GOTO   0AB
009B:  INCF   31,F
009C:  INCF   30,F
009D:  MOVF   2C,W
009E:  ADDWF  2F,F
009F:  MOVF   2D,W
00A0:  ADDWF  2E,F
00A1:  BTFSS  03.0
00A2:  GOTO   0C2
00A3:  INCF   2F,F
00A4:  BTFSS  03.2
00A5:  GOTO   0C2
00A6:  INCF   30,F
00A7:  BTFSS  03.2
00A8:  GOTO   0C2
00A9:  INCF   31,F
00AA:  GOTO   0C2
00AB:  MOVF   2B,W
00AC:  IORLW  80
00AD:  SUBWF  30,F
00AE:  BTFSC  03.0
00AF:  GOTO   0C1
00B0:  MOVLW  01
00B1:  SUBWF  31,F
00B2:  BTFSC  03.0
00B3:  GOTO   0C1
00B4:  INCF   31,F
00B5:  MOVF   2B,W
00B6:  IORLW  80
00B7:  ADDWF  30,F
00B8:  MOVF   2C,W
00B9:  ADDWF  2F,F
00BA:  BTFSS  03.0
00BB:  GOTO   09F
00BC:  INCF   30,F
00BD:  BTFSS  03.2
00BE:  GOTO   09F
00BF:  INCF   31,F
00C0:  GOTO   09F
00C1:  BSF    7A.0
00C2:  DECFSZ 32,F
00C3:  GOTO   0C5
00C4:  GOTO   0D0
00C5:  BCF    03.0
00C6:  RLF    2E,F
00C7:  RLF    2F,F
00C8:  RLF    30,F
00C9:  RLF    31,F
00CA:  BCF    03.0
00CB:  RLF    7A,F
00CC:  RLF    79,F
00CD:  RLF    78,F
00CE:  RLF    33,F
00CF:  GOTO   07C
00D0:  BTFSS  33.0
00D1:  GOTO   0D8
00D2:  BCF    03.0
00D3:  RRF    78,F
00D4:  RRF    79,F
00D5:  RRF    7A,F
00D6:  RRF    33,F
00D7:  GOTO   0DB
00D8:  DECF   77,F
00D9:  BTFSC  03.2
00DA:  GOTO   11D
00DB:  BTFSC  33.7
00DC:  GOTO   104
00DD:  BCF    03.0
00DE:  RLF    2E,F
00DF:  RLF    2F,F
00E0:  RLF    30,F
00E1:  RLF    31,F
00E2:  MOVF   2D,W
00E3:  SUBWF  2E,F
00E4:  BTFSC  03.0
00E5:  GOTO   0F0
00E6:  MOVLW  01
00E7:  SUBWF  2F,F
00E8:  BTFSC  03.0
00E9:  GOTO   0F0
00EA:  SUBWF  30,F
00EB:  BTFSC  03.0
00EC:  GOTO   0F0
00ED:  SUBWF  31,F
00EE:  BTFSS  03.0
00EF:  GOTO   113
00F0:  MOVF   2C,W
00F1:  SUBWF  2F,F
00F2:  BTFSC  03.0
00F3:  GOTO   0FB
00F4:  MOVLW  01
00F5:  SUBWF  30,F
00F6:  BTFSC  03.0
00F7:  GOTO   0FB
00F8:  SUBWF  31,F
00F9:  BTFSS  03.0
00FA:  GOTO   113
00FB:  MOVF   2B,W
00FC:  IORLW  80
00FD:  SUBWF  30,F
00FE:  BTFSC  03.0
00FF:  GOTO   104
0100:  MOVLW  01
0101:  SUBWF  31,F
0102:  BTFSS  03.0
0103:  GOTO   113
0104:  INCF   7A,F
0105:  BTFSS  03.2
0106:  GOTO   113
0107:  INCF   79,F
0108:  BTFSS  03.2
0109:  GOTO   113
010A:  INCF   78,F
010B:  BTFSS  03.2
010C:  GOTO   113
010D:  INCF   77,F
010E:  BTFSC  03.2
010F:  GOTO   11D
0110:  RRF    78,F
0111:  RRF    79,F
0112:  RRF    7A,F
0113:  MOVF   27,W
0114:  MOVWF  32
0115:  MOVF   2B,W
0116:  XORWF  32,F
0117:  BTFSS  32.7
0118:  GOTO   11B
0119:  BSF    78.7
011A:  GOTO   121
011B:  BCF    78.7
011C:  GOTO   121
011D:  CLRF   77
011E:  CLRF   78
011F:  CLRF   79
0120:  CLRF   7A
0121:  BCF    0A.3
0122:  BCF    0A.4
0123:  GOTO   28F (RETURN)
0124:  MOVLW  8E
0125:  MOVWF  77
0126:  MOVF   26,W
0127:  SUBWF  77,F
0128:  MOVF   27,W
0129:  MOVWF  79
012A:  MOVF   28,W
012B:  MOVWF  78
012C:  BSF    79.7
012D:  MOVF   77,F
012E:  BTFSC  03.2
012F:  GOTO   13B
0130:  BCF    03.0
0131:  MOVF   79,F
0132:  BTFSS  03.2
0133:  GOTO   137
0134:  MOVF   78,F
0135:  BTFSC  03.2
0136:  GOTO   13B
0137:  RRF    79,F
0138:  RRF    78,F
0139:  DECFSZ 77,F
013A:  GOTO   130
013B:  BTFSS  27.7
013C:  GOTO   142
013D:  COMF   78,F
013E:  COMF   79,F
013F:  INCF   78,F
0140:  BTFSC  03.2
0141:  INCF   79,F
0142:  BCF    0A.3
0143:  BCF    0A.4
0144:  GOTO   298 (RETURN)
0145:  MOVF   2B,W
0146:  XORWF  2D,W
0147:  ANDLW  80
0148:  MOVWF  2F
0149:  BTFSS  2B.7
014A:  GOTO   150
014B:  COMF   2A,F
014C:  COMF   2B,F
014D:  INCF   2A,F
014E:  BTFSC  03.2
014F:  INCF   2B,F
0150:  BTFSS  2D.7
0151:  GOTO   157
0152:  COMF   2C,F
0153:  COMF   2D,F
0154:  INCF   2C,F
0155:  BTFSC  03.2
0156:  INCF   2D,F
0157:  CLRF   78
0158:  CLRF   79
0159:  CLRF   77
015A:  CLRF   7A
015B:  MOVF   2D,W
015C:  BTFSS  03.2
015D:  GOTO   161
015E:  MOVF   2C,W
015F:  BTFSC  03.2
0160:  GOTO   17B
0161:  MOVLW  10
0162:  MOVWF  2E
0163:  BCF    03.0
0164:  RLF    2A,F
0165:  RLF    2B,F
0166:  RLF    77,F
0167:  RLF    7A,F
0168:  MOVF   2D,W
0169:  SUBWF  7A,W
016A:  BTFSS  03.2
016B:  GOTO   16E
016C:  MOVF   2C,W
016D:  SUBWF  77,W
016E:  BTFSS  03.0
016F:  GOTO   177
0170:  MOVF   2C,W
0171:  SUBWF  77,F
0172:  BTFSS  03.0
0173:  DECF   7A,F
0174:  MOVF   2D,W
0175:  SUBWF  7A,F
0176:  BSF    03.0
0177:  RLF    78,F
0178:  RLF    79,F
0179:  DECFSZ 2E,F
017A:  GOTO   163
017B:  BTFSS  2F.7
017C:  GOTO   182
017D:  COMF   78,F
017E:  COMF   79,F
017F:  INCF   78,F
0180:  BTFSC  03.2
0181:  INCF   79,F
0182:  RETURN
.................... 
.................... #list
.................... 
.................... #device ADC=10
.................... #fuses nowdt, put, hs, noprotect, nolvp
.................... #use delay(crystal=6000000)
*
01E3:  MOVLW  26
01E4:  MOVWF  04
01E5:  BCF    03.7
01E6:  MOVF   00,W
01E7:  BTFSC  03.2
01E8:  GOTO   1F7
01E9:  MOVLW  01
01EA:  MOVWF  78
01EB:  CLRF   77
01EC:  DECFSZ 77,F
01ED:  GOTO   1EC
01EE:  DECFSZ 78,F
01EF:  GOTO   1EB
01F0:  MOVLW  F1
01F1:  MOVWF  77
01F2:  DECFSZ 77,F
01F3:  GOTO   1F2
01F4:  NOP
01F5:  DECFSZ 00,F
01F6:  GOTO   1E9
01F7:  RETURN
.................... 
.................... 
.................... #define solando 100
.................... 
.................... unsigned INT16 lm35;
.................... unsigned INT j, ma_tr, ma_ch, ma_dv;
.................... const unsigned char ma7doan[10] = {0x3f, 0x06, 0x5b, 0x4f, 0x66, 0x6d, 0x7d, 0x07, 0x7f, 0x6f}; 
.................... 
.................... void giaima_3so_xvn(signed int16 x) 
.................... {
....................    ma_dv = ma7doan[x % 10];   // Hàng don v?
*
0183:  MOVF   27,W
0184:  MOVWF  2B
0185:  MOVF   26,W
0186:  MOVWF  2A
0187:  CLRF   2D
0188:  MOVLW  0A
0189:  MOVWF  2C
018A:  CALL   145
018B:  MOVF   77,W
018C:  MOVWF  28
018D:  MOVF   7A,W
018E:  MOVWF  29
018F:  MOVWF  7A
0190:  MOVF   77,W
0191:  CALL   004
0192:  MOVWF  78
0193:  MOVWF  25
....................    ma_ch = ma7doan[ (x / 10) % 10];  // Hàng ch?c
0194:  MOVF   27,W
0195:  MOVWF  2B
0196:  MOVF   26,W
0197:  MOVWF  2A
0198:  CLRF   2D
0199:  MOVLW  0A
019A:  MOVWF  2C
019B:  CALL   145
019C:  MOVF   79,W
019D:  MOVWF  29
019E:  MOVF   78,W
019F:  MOVWF  28
01A0:  MOVF   79,W
01A1:  MOVWF  2B
01A2:  MOVF   78,W
01A3:  MOVWF  2A
01A4:  CLRF   2D
01A5:  MOVLW  0A
01A6:  MOVWF  2C
01A7:  CALL   145
01A8:  MOVF   77,W
01A9:  MOVWF  28
01AA:  MOVF   7A,W
01AB:  MOVWF  29
01AC:  MOVWF  7A
01AD:  MOVF   77,W
01AE:  CALL   004
01AF:  MOVWF  78
01B0:  MOVWF  24
....................    ma_tr = ma7doan[ (x / 100) % 10]; // Hàng tram
01B1:  MOVF   27,W
01B2:  MOVWF  2B
01B3:  MOVF   26,W
01B4:  MOVWF  2A
01B5:  CLRF   2D
01B6:  MOVLW  64
01B7:  MOVWF  2C
01B8:  CALL   145
01B9:  MOVF   79,W
01BA:  MOVWF  29
01BB:  MOVF   78,W
01BC:  MOVWF  28
01BD:  MOVF   79,W
01BE:  MOVWF  2B
01BF:  MOVF   78,W
01C0:  MOVWF  2A
01C1:  CLRF   2D
01C2:  MOVLW  0A
01C3:  MOVWF  2C
01C4:  CALL   145
01C5:  MOVF   77,W
01C6:  MOVWF  28
01C7:  MOVF   7A,W
01C8:  MOVWF  29
01C9:  MOVWF  7A
01CA:  MOVF   77,W
01CB:  CALL   004
01CC:  MOVWF  78
01CD:  MOVWF  23
....................    // ?n s? 0 ? hàng tram n?u x < 100
....................    if (x < 100)
01CE:  BTFSC  27.7
01CF:  GOTO   1D6
01D0:  MOVF   27,F
01D1:  BTFSS  03.2
01D2:  GOTO   1D7
01D3:  MOVF   26,W
01D4:  SUBLW  63
01D5:  BTFSC  03.0
....................    {
....................       ma_tr = 0x00;
01D6:  CLRF   23
....................    }
.................... 
....................    // ?n s? 0 ? hàng ch?c n?u x < 10
....................    if (x < 10)
01D7:  BTFSC  27.7
01D8:  GOTO   1DF
01D9:  MOVF   27,F
01DA:  BTFSS  03.2
01DB:  GOTO   1E0
01DC:  MOVF   26,W
01DD:  SUBLW  09
01DE:  BTFSC  03.0
....................    {
....................       ma_ch = 0x00;
01DF:  CLRF   24
....................    }
01E0:  BCF    0A.3
01E1:  BCF    0A.4
01E2:  GOTO   2A1 (RETURN)
.................... }
.................... 
.................... void hienthi_3so_quet() 
.................... {
....................    // Hi?n th? hàng don v?
....................    output_d (ma_dv) ;
*
01F8:  BSF    03.5
01F9:  CLRF   08
01FA:  BCF    03.5
01FB:  MOVF   25,W
01FC:  MOVWF  08
....................    output_high (PIN_B0) ;
01FD:  BSF    03.5
01FE:  BCF    06.0
01FF:  BCF    03.5
0200:  BSF    06.0
....................    delay_ms (3) ;
0201:  MOVLW  03
0202:  MOVWF  26
0203:  CALL   1E3
....................    output_low (PIN_B0) ;
0204:  BSF    03.5
0205:  BCF    06.0
0206:  BCF    03.5
0207:  BCF    06.0
.................... 
....................    // Hi?n th? hàng ch?c
....................    output_d (ma_ch) ;
0208:  BSF    03.5
0209:  CLRF   08
020A:  BCF    03.5
020B:  MOVF   24,W
020C:  MOVWF  08
....................    output_high (PIN_B1) ;
020D:  BSF    03.5
020E:  BCF    06.1
020F:  BCF    03.5
0210:  BSF    06.1
....................    delay_ms (3) ;
0211:  MOVLW  03
0212:  MOVWF  26
0213:  CALL   1E3
....................    output_low (PIN_B1) ;
0214:  BSF    03.5
0215:  BCF    06.1
0216:  BCF    03.5
0217:  BCF    06.1
.................... 
....................    // Hi?n th? hàng tram
....................    output_d (ma_tr) ;
0218:  BSF    03.5
0219:  CLRF   08
021A:  BCF    03.5
021B:  MOVF   23,W
021C:  MOVWF  08
....................    output_high (PIN_B2) ;
021D:  BSF    03.5
021E:  BCF    06.2
021F:  BCF    03.5
0220:  BSF    06.2
....................    delay_ms (3) ;
0221:  MOVLW  03
0222:  MOVWF  26
0223:  CALL   1E3
....................    output_low (PIN_B2) ;
0224:  BSF    03.5
0225:  BCF    06.2
0226:  BCF    03.5
0227:  BCF    06.2
0228:  BCF    0A.3
0229:  BCF    0A.4
022A:  GOTO   2A2 (RETURN)
.................... }
.................... 
.................... void main()
022B:  MOVF   03,W
022C:  ANDLW  1F
022D:  MOVWF  03
022E:  BSF    03.5
022F:  BSF    1F.0
0230:  BSF    1F.1
0231:  BSF    1F.2
0232:  BCF    1F.3
0233:  MOVLW  07
0234:  MOVWF  1C
0235:  BCF    03.7
.................... {
....................    set_tris_a(0x01);
0236:  MOVLW  01
0237:  MOVWF  05
....................    set_tris_d(0x00);
0238:  MOVLW  00
0239:  MOVWF  08
.................... 
....................    setup_adc(ADC_CLOCK_DIV_8);
023A:  BCF    1F.6
023B:  BCF    03.5
023C:  BSF    1F.6
023D:  BCF    1F.7
023E:  BSF    03.5
023F:  BSF    1F.7
0240:  BCF    03.5
0241:  BSF    1F.0
....................   setup_adc_ports(AN0);
0242:  BSF    03.5
0243:  BCF    1F.0
0244:  BSF    1F.1
0245:  BSF    1F.2
0246:  BSF    1F.3
....................    set_adc_channel(0);
0247:  MOVWF  78
0248:  BCF    03.5
0249:  MOVF   1F,W
024A:  ANDLW  C7
024B:  IORWF  78,W
024C:  MOVWF  1F
....................    delay_us(20); // Small delay to allow ADC channel to stabilize
024D:  MOVLW  09
024E:  MOVWF  77
024F:  DECFSZ 77,F
0250:  GOTO   24F
0251:  GOTO   252
.................... 
....................    WHILE (TRUE)
....................    {
....................       lm35 = 0;
0252:  CLRF   21
0253:  CLRF   20
....................       FOR (j = 0; j < solando; j++)
0254:  CLRF   22
0255:  MOVF   22,W
0256:  SUBLW  63
0257:  BTFSS  03.0
0258:  GOTO   26D
....................       {
....................          lm35 = lm35 + read_adc();
0259:  BSF    1F.2
025A:  BTFSC  1F.2
025B:  GOTO   25A
025C:  MOVF   1E,W
025D:  MOVWF  79
025E:  BSF    03.5
025F:  MOVF   1E,W
0260:  BCF    03.5
0261:  ADDWF  20,F
0262:  MOVF   79,W
0263:  BTFSC  03.0
0264:  INCFSZ 79,W
0265:  ADDWF  21,F
....................          delay_us(10); // Small delay between readings
0266:  MOVLW  04
0267:  MOVWF  77
0268:  DECFSZ 77,F
0269:  GOTO   268
026A:  GOTO   26B
026B:  INCF   22,F
026C:  GOTO   255
....................       }
.................... 
....................       lm35 = lm35 / solando;
026D:  MOVF   21,W
026E:  MOVWF  27
026F:  MOVF   20,W
0270:  MOVWF  26
0271:  CLRF   29
0272:  MOVLW  64
0273:  MOVWF  28
0274:  GOTO   012
0275:  MOVF   79,W
0276:  MOVWF  21
0277:  MOVF   78,W
0278:  MOVWF  20
....................       lm35 = lm35 / 2.046;
0279:  MOVF   21,W
027A:  MOVWF  27
027B:  MOVF   20,W
027C:  MOVWF  26
027D:  GOTO   039
027E:  MOVF   7A,W
027F:  MOVWF  29
0280:  MOVF   79,W
0281:  MOVWF  28
0282:  MOVF   78,W
0283:  MOVWF  27
0284:  MOVF   77,W
0285:  MOVWF  26
0286:  MOVLW  AA
0287:  MOVWF  2D
0288:  MOVLW  F1
0289:  MOVWF  2C
028A:  MOVLW  02
028B:  MOVWF  2B
028C:  MOVLW  80
028D:  MOVWF  2A
028E:  GOTO   058
028F:  MOVF   7A,W
0290:  MOVWF  29
0291:  MOVF   79,W
0292:  MOVWF  28
0293:  MOVF   78,W
0294:  MOVWF  27
0295:  MOVF   77,W
0296:  MOVWF  26
0297:  GOTO   124
0298:  MOVF   79,W
0299:  MOVWF  21
029A:  MOVF   78,W
029B:  MOVWF  20
....................       giaima_3so_xvn(lm35);
029C:  MOVF   21,W
029D:  MOVWF  27
029E:  MOVF   20,W
029F:  MOVWF  26
02A0:  GOTO   183
....................       hienthi_3so_quet();
02A1:  GOTO   1F8
02A2:  GOTO   252
....................    }
.................... }
.................... 
02A3:  SLEEP

Configuration Fuses:
   Word  1: 3F72   HS NOWDT PUT BROWNOUT NOLVP NOCPD NOWRT NODEBUG NOPROTECT
